target datalayout = "e-m:e-p270:32:32-p271:32:32-p272:64:64-i64:64-i128:128-f80:128-n8:16:32:64-S128"
target triple = "x86_64-pc-linux-gnu"

%struct.prov_cipher_ctx_st = type { [16 x i8], [16 x i8], [16 x i8], ptr, %union.anon, i32, i64, i64, i64, i64, i32, i8, i32, ptr, i32, i64, i32, i64, i32, ptr, ptr, ptr }
%union.anon = type { ptr }
%struct.prov_cipher_hw_st = type { ptr, ptr, ptr }

; Function Attrs: nounwind uwtable
define internal i64 @cts128_cs2_decrypt(ptr noundef %0, ptr noundef %1, ptr noundef %2, i64 noundef %3) #0 {
  %5 = alloca i64, align 8
  %6 = alloca ptr, align 8
  %7 = alloca ptr, align 8
  %8 = alloca ptr, align 8
  %9 = alloca i64, align 8
  store ptr %0, ptr %6, align 8, !tbaa !21
  store ptr %1, ptr %7, align 8, !tbaa !16
  store ptr %2, ptr %8, align 8, !tbaa !16
  store i64 %3, ptr %9, align 8, !tbaa !7
  %10 = load i64, ptr %9, align 8, !tbaa !7
  %11 = urem i64 %10, 16
  %12 = icmp eq i64 %11, 0
  br i1 %12, label %13, label %28

13:                                               ; preds = %4
  %14 = load ptr, ptr %6, align 8, !tbaa !21
  %15 = getelementptr inbounds nuw %struct.prov_cipher_ctx_st, ptr %14, i32 0, i32 19
  %16 = load ptr, ptr %15, align 8, !tbaa !27
  %17 = getelementptr inbounds nuw %struct.prov_cipher_hw_st, ptr %16, i32 0, i32 1
  %18 = load ptr, ptr %17, align 8, !tbaa !28
  %19 = load ptr, ptr %6, align 8, !tbaa !21
  %20 = load ptr, ptr %8, align 8, !tbaa !16
  %21 = load ptr, ptr %7, align 8, !tbaa !16
  %22 = load i64, ptr %9, align 8, !tbaa !7
  %23 = call i32 %18(ptr noundef %19, ptr noundef %20, ptr noundef %21, i64 noundef %22)
  %24 = icmp ne i32 %23, 0
  br i1 %24, label %26, label %25

25:                                               ; preds = %13
  store i64 0, ptr %5, align 8
  br label %34

26:                                               ; preds = %13
  %27 = load i64, ptr %9, align 8, !tbaa !7
  store i64 %27, ptr %5, align 8
  br label %34

28:                                               ; preds = %4
  %29 = load ptr, ptr %6, align 8, !tbaa !21
  %30 = load ptr, ptr %7, align 8, !tbaa !16
  %31 = load ptr, ptr %8, align 8, !tbaa !16
  %32 = load i64, ptr %9, align 8, !tbaa !7
  %33 = call i64 @cts128_cs3_decrypt(ptr noundef %29, ptr noundef %30, ptr noundef %31, i64 noundef %32)
  store i64 %33, ptr %5, align 8
  br label %34

34:                                               ; preds = %28, %26, %25
  %35 = load i64, ptr %5, align 8
  ret i64 %35
}