; Function Attrs: nounwind uwtable
define internal fastcc i64 @cts128_cs2_decrypt(ptr noundef %0, ptr noundef %1, ptr noundef nonnull %2, i64 noundef range(i64 16, 0) %3) unnamed_addr #2 {
  %5 = and i64 %3, 15
  %6 = icmp eq i64 %5, 0
  br i1 %6, label %7, label %13

7:                                                ; preds = %4
  %8 = getelementptr inbounds nuw i8, ptr %0, i64 168
  %9 = load ptr, ptr %8, align 8, !tbaa !20
  %10 = getelementptr inbounds nuw i8, ptr %9, i64 8
  %11 = load ptr, ptr %10, align 8, !tbaa !21
  %12 = tail call i32 %11(ptr noundef %0, ptr noundef nonnull %2, ptr noundef %1, i64 noundef %3) #7
  %.not = icmp eq i32 %12, 0
  %. = select i1 %.not, i64 0, i64 %3
  br label %15

13:                                               ; preds = %4
  %14 = tail call fastcc i64 @cts128_cs3_decrypt(ptr noundef %0, ptr noundef %1, ptr noundef %2, i64 noundef %3)
  br label %15

15:                                               ; preds = %7, %13
  %.0 = phi i64 [ %14, %13 ], [ %., %7 ]
  ret i64 %.0
}